target datalayout = "e-m:e-p270:32:32-p271:32:32-p272:64:64-i64:64-i128:128-f80:128-n8:16:32:64-S128"
target triple = "x86_64-pc-linux-gnu"

%struct.expert_field = type { i32, i32 }

@hf_nfapi_virtual_cell_id_enabled_flag = internal global i32 0, align 4
@hf_nfapi_npucch_identity = internal global i32 0, align 4
@ei_invalid_range = internal global %struct.expert_field zeroinitializer, align 4
@.str.2228 = private unnamed_addr constant [50 x i8] c"Invalid virtual cell id enabled flag value [0..1]\00", align 1
@.str.2236 = private unnamed_addr constant [39 x i8] c"Invalid npucch identity value [0..503]\00", align 1

; Function Attrs: nounwind uwtable
define internal void @dissect_ul_config_ue_info_rel11_value(ptr noundef %0, ptr noundef %1) #0 {
  %3 = alloca ptr, align 8
  %4 = alloca ptr, align 8
  %5 = alloca ptr, align 8
  %6 = alloca i32, align 4
  store ptr %0, ptr %3, align 8
  store ptr %1, ptr %4, align 8
  %7 = load ptr, ptr %3, align 8
  %8 = load i32, ptr @hf_nfapi_virtual_cell_id_enabled_flag, align 4
  %9 = call ptr @ptvcursor_add_ret_uint(ptr noundef %7, i32 noundef %8, i32 noundef 1, i32 noundef 0, ptr noundef %6)
  store ptr %9, ptr %5, align 8
  %10 = load i32, ptr %6, align 4
  %11 = icmp ugt i32 %10, 1
  br i1 %11, label %12, label %16

12:                                               ; preds = %2
  %13 = load ptr, ptr %4, align 8
  %14 = load ptr, ptr %5, align 8
  %15 = call ptr (ptr, ptr, ptr, ptr, ...) @expert_add_info_format(ptr noundef %13, ptr noundef %14, ptr noundef @ei_invalid_range, ptr noundef @.str.2228)
  br label %16

16:                                               ; preds = %12, %2
  %17 = load ptr, ptr %3, align 8
  %18 = load i32, ptr @hf_nfapi_npucch_identity, align 4
  %19 = call ptr @ptvcursor_add_ret_uint(ptr noundef %17, i32 noundef %18, i32 noundef 2, i32 noundef 0, ptr noundef %6)
  store ptr %19, ptr %5, align 8
  %20 = load i32, ptr %6, align 4
  %21 = icmp ugt i32 %20, 503
  br i1 %21, label %22, label %26

22:                                               ; preds = %16
  %23 = load ptr, ptr %4, align 8
  %24 = load ptr, ptr %5, align 8
  %25 = call ptr (ptr, ptr, ptr, ptr, ...) @expert_add_info_format(ptr noundef %23, ptr noundef %24, ptr noundef @ei_invalid_range, ptr noundef @.str.2236)
  br label %26

26:                                               ; preds = %22, %16
  ret void
}